; Function Attrs: mustprogress uwtable
define void @_ZN22EnabledProtocolsDialog29on_enable_all_button__clickedEv(ptr nocapture noundef nonnull readonly align 8 dereferenceable(88) %0) local_unnamed_addr #0 align 2 {
  %2 = alloca %class.QModelIndex, align 8
  %3 = getelementptr inbounds i8, ptr %0, i64 80
  %4 = load ptr, ptr %3, align 8
  store i32 -1, ptr %2, align 8
  %5 = getelementptr inbounds i8, ptr %2, i64 4
  store i32 -1, ptr %5, align 4
  %6 = getelementptr inbounds i8, ptr %2, i64 8
  call void @llvm.memset.p0.i64(ptr noundef nonnull align 8 dereferenceable(16) %6, i8 0, i64 16, i1 false)
  tail call void @_ZN26EnabledProtocolsProxyModel14setItemsEnableENS_10EnableTypeE11QModelIndex(ptr noundef nonnull align 8 dereferenceable(48) %4, i32 noundef 0, ptr noundef nonnull byval(%class.QModelIndex) align 8 %2)
  %7 = getelementptr inbounds i8, ptr %0, i64 64
  %8 = load ptr, ptr %7, align 8
  %9 = getelementptr inbounds i8, ptr %8, i64 56
  %10 = load ptr, ptr %9, align 8
  tail call void @_ZN9QTreeView9expandAllEv(ptr noundef nonnull align 8 dereferenceable(40) %10)
  ret void
}